; Function Attrs: mustprogress nounwind uwtable
define hidden range(i32 -1, 1) i32 @jni_AttachCurrentThreadAsDaemon(ptr noundef %0, ptr noundef %1, ptr noundef %2) #0 {
  tail call void asm sideeffect ".altmacro\0A.macro _SDT_SIGN x\0A.pushsection .note.stapsdt,\22\22,\22note\22\0A.iflt \\x\0A.ascii \22-\22\0A.endif\0A.popsection\0A.endm\0A.macro _SDT_SIZE_ x\0A.pushsection .note.stapsdt,\22\22,\22note\22\0A.ascii \22\\x\22\0A.popsection\0A.endm\0A.macro _SDT_SIZE x\0A_SDT_SIZE_ %((-(-\\x*((-\\x>0)-(-\\x<0))))>>8)\0A.endm\0A.macro _SDT_TYPE_ x\0A.pushsection .note.stapsdt,\22\22,\22note\22\0A.ifc 8,\\x\0A.ascii \22f\22\0A.endif\0A.ascii \22@\22\0A.popsection\0A.endm\0A.macro _SDT_TYPE x\0A_SDT_TYPE_ %((\\x)&(0xff))\0A.endm\0A990: nop\0A.pushsection .note.stapsdt,\22?\22,\22note\22\0A.balign 4\0A.4byte 992f-991f,994f-993f,3\0A991: .asciz \22stapsdt\22\0A992: .balign 4\0A993: .8byte 990b\0A.8byte _.stapsdt.base\0A.8byte 0\0A.asciz \22hotspot_jni\22\0A.asciz \22AttachCurrentThreadAsDaemon__entry\22\0A_SDT_SIGN ${0:n}\0A_SDT_SIZE ${0:n}\0A_SDT_TYPE ${0:n}\0A.ascii \22$1\22\0A.ascii \22\\x20\22\0A_SDT_SIGN ${2:n}\0A_SDT_SIZE ${2:n}\0A_SDT_TYPE ${2:n}\0A.ascii \22$3\22\0A.ascii \22\\x20\22\0A_SDT_SIGN ${4:n}\0A_SDT_SIZE ${4:n}\0A_SDT_TYPE ${4:n}\0A.ascii \22$5\22\0A.ascii \22\\x00\22\0A.purgem _SDT_SIGN\0A.purgem _SDT_SIZE_\0A.purgem _SDT_SIZE\0A.purgem _SDT_TYPE_\0A.purgem _SDT_TYPE\0A994: .balign 4\0A.popsection\0A", "n,norfxy,n,norfxy,n,norfxy,~{dirflag},~{fpsr},~{flags}"(i32 -2053, ptr %0, i32 -2053, ptr %1, i32 -2053, ptr %2) #14, !srcloc !981
  tail call void asm sideeffect ".ifndef _.stapsdt.base\0A.pushsection .stapsdt.base,\22aG\22,\22progbits\22,.stapsdt.base,comdat\0A.weak _.stapsdt.base\0A.hidden _.stapsdt.base\0A_.stapsdt.base: .space 1\0A.size _.stapsdt.base,1\0A.popsection\0A.endif\0A", "~{dirflag},~{fpsr},~{flags}"() #14, !srcloc !982
  %4 = load volatile i32, ptr @vm_created, align 4
  %5 = icmp eq i32 %4, 0
  br i1 %5, label %6, label %7

6:                                                ; preds = %3
  tail call void asm sideeffect ".altmacro\0A.macro _SDT_SIGN x\0A.pushsection .note.stapsdt,\22\22,\22note\22\0A.iflt \\x\0A.ascii \22-\22\0A.endif\0A.popsection\0A.endm\0A.macro _SDT_SIZE_ x\0A.pushsection .note.stapsdt,\22\22,\22note\22\0A.ascii \22\\x\22\0A.popsection\0A.endm\0A.macro _SDT_SIZE x\0A_SDT_SIZE_ %((-(-\\x*((-\\x>0)-(-\\x<0))))>>8)\0A.endm\0A.macro _SDT_TYPE_ x\0A.pushsection .note.stapsdt,\22\22,\22note\22\0A.ifc 8,\\x\0A.ascii \22f\22\0A.endif\0A.ascii \22@\22\0A.popsection\0A.endm\0A.macro _SDT_TYPE x\0A_SDT_TYPE_ %((\\x)&(0xff))\0A.endm\0A990: nop\0A.pushsection .note.stapsdt,\22?\22,\22note\22\0A.balign 4\0A.4byte 992f-991f,994f-993f,3\0A991: .asciz \22stapsdt\22\0A992: .balign 4\0A993: .8byte 990b\0A.8byte _.stapsdt.base\0A.8byte 0\0A.asciz \22hotspot_jni\22\0A.asciz \22AttachCurrentThreadAsDaemon__return\22\0A_SDT_SIGN ${0:n}\0A_SDT_SIZE ${0:n}\0A_SDT_TYPE ${0:n}\0A.ascii \22$1\22\0A.ascii \22\\x00\22\0A.purgem _SDT_SIGN\0A.purgem _SDT_SIZE_\0A.purgem _SDT_SIZE\0A.purgem _SDT_TYPE_\0A.purgem _SDT_TYPE\0A994: .balign 4\0A.popsection\0A", "n,norfxy,~{dirflag},~{fpsr},~{flags}"(i32 -1025, i32 -1) #14, !srcloc !983
  tail call void asm sideeffect ".ifndef _.stapsdt.base\0A.pushsection .stapsdt.base,\22aG\22,\22progbits\22,.stapsdt.base,comdat\0A.weak _.stapsdt.base\0A.hidden _.stapsdt.base\0A_.stapsdt.base: .space 1\0A.size _.stapsdt.base,1\0A.popsection\0A.endif\0A", "~{dirflag},~{fpsr},~{flags}"() #14, !srcloc !984
  br label %9

7:                                                ; preds = %3
  %8 = tail call fastcc noundef i32 @_ZL21attach_current_threadP7JavaVM_PPvS1_b(ptr noundef %1, ptr noundef %2, i1 noundef zeroext true)
  tail call void asm sideeffect ".altmacro\0A.macro _SDT_SIGN x\0A.pushsection .note.stapsdt,\22\22,\22note\22\0A.iflt \\x\0A.ascii \22-\22\0A.endif\0A.popsection\0A.endm\0A.macro _SDT_SIZE_ x\0A.pushsection .note.stapsdt,\22\22,\22note\22\0A.ascii \22\\x\22\0A.popsection\0A.endm\0A.macro _SDT_SIZE x\0A_SDT_SIZE_ %((-(-\\x*((-\\x>0)-(-\\x<0))))>>8)\0A.endm\0A.macro _SDT_TYPE_ x\0A.pushsection .note.stapsdt,\22\22,\22note\22\0A.ifc 8,\\x\0A.ascii \22f\22\0A.endif\0A.ascii \22@\22\0A.popsection\0A.endm\0A.macro _SDT_TYPE x\0A_SDT_TYPE_ %((\\x)&(0xff))\0A.endm\0A990: nop\0A.pushsection .note.stapsdt,\22?\22,\22note\22\0A.balign 4\0A.4byte 992f-991f,994f-993f,3\0A991: .asciz \22stapsdt\22\0A992: .balign 4\0A993: .8byte 990b\0A.8byte _.stapsdt.base\0A.8byte 0\0A.asciz \22hotspot_jni\22\0A.asciz \22AttachCurrentThreadAsDaemon__return\22\0A_SDT_SIGN ${0:n}\0A_SDT_SIZE ${0:n}\0A_SDT_TYPE ${0:n}\0A.ascii \22$1\22\0A.ascii \22\\x00\22\0A.purgem _SDT_SIGN\0A.purgem _SDT_SIZE_\0A.purgem _SDT_SIZE\0A.purgem _SDT_TYPE_\0A.purgem _SDT_TYPE\0A994: .balign 4\0A.popsection\0A", "n,norfxy,~{dirflag},~{fpsr},~{flags}"(i32 1025, i32 %8) #14, !srcloc !985
  tail call void asm sideeffect ".ifndef _.stapsdt.base\0A.pushsection .stapsdt.base,\22aG\22,\22progbits\22,.stapsdt.base,comdat\0A.weak _.stapsdt.base\0A.hidden _.stapsdt.base\0A_.stapsdt.base: .space 1\0A.size _.stapsdt.base,1\0A.popsection\0A.endif\0A", "~{dirflag},~{fpsr},~{flags}"() #14, !srcloc !986
  br label %9

9:                                                ; preds = %7, %6
  %.0 = phi i32 [ -1, %6 ], [ %8, %7 ]
  ret i32 %.0
}